target datalayout = "e-m:e-p270:32:32-p271:32:32-p272:64:64-i64:64-i128:128-f80:128-n8:16:32:64-S128"
target triple = "x86_64-pc-linux-gnu"

; Function Attrs: nounwind uwtable
define internal void @_blend_normal_unbounded(ptr noundef %0, ptr noundef %1, ptr noundef %2, ptr noundef %3, i64 noundef %4) #0 {
  %6 = alloca ptr, align 8
  %7 = alloca ptr, align 8
  %8 = alloca ptr, align 8
  %9 = alloca ptr, align 8
  %10 = alloca i64, align 8
  %11 = alloca i64, align 8
  %12 = alloca i64, align 8
  %13 = alloca i32, align 4
  %14 = alloca float, align 4
  %15 = alloca i32, align 4
  store ptr %0, ptr %6, align 8, !tbaa !11
  store ptr %1, ptr %7, align 8, !tbaa !11
  store ptr %2, ptr %8, align 8, !tbaa !11
  store ptr %3, ptr %9, align 8, !tbaa !11
  store i64 %4, ptr %10, align 8, !tbaa !43
  call void @llvm.lifetime.start.p0(i64 8, ptr %11) #8
  store i64 0, ptr %11, align 8, !tbaa !43
  call void @llvm.lifetime.start.p0(i64 8, ptr %12) #8
  store i64 0, ptr %12, align 8, !tbaa !43
  br label %16

16:                                               ; preds = %66, %5
  %17 = load i64, ptr %11, align 8, !tbaa !43
  %18 = load i64, ptr %10, align 8, !tbaa !43
  %19 = icmp ult i64 %17, %18
  br i1 %19, label %21, label %20

20:                                               ; preds = %16
  store i32 2, ptr %13, align 4
  call void @llvm.lifetime.end.p0(i64 8, ptr %12) #8
  call void @llvm.lifetime.end.p0(i64 8, ptr %11) #8
  br label %71

21:                                               ; preds = %16
  call void @llvm.lifetime.start.p0(i64 4, ptr %14) #8
  %22 = load ptr, ptr %9, align 8, !tbaa !11
  %23 = load i64, ptr %11, align 8, !tbaa !43
  %24 = getelementptr inbounds nuw float, ptr %22, i64 %23
  %25 = load float, ptr %24, align 4, !tbaa !45
  store float %25, ptr %14, align 4, !tbaa !45
  call void @llvm.lifetime.start.p0(i64 4, ptr %15) #8
  store i32 0, ptr %15, align 4, !tbaa !36
  br label %26

26:                                               ; preds = %57, %21
  %27 = load i32, ptr %15, align 4, !tbaa !36
  %28 = icmp slt i32 %27, 3
  br i1 %28, label %30, label %29

29:                                               ; preds = %26
  store i32 5, ptr %13, align 4
  call void @llvm.lifetime.end.p0(i64 4, ptr %15) #8
  br label %60

30:                                               ; preds = %26
  %31 = load ptr, ptr %6, align 8, !tbaa !11
  %32 = load i64, ptr %12, align 8, !tbaa !43
  %33 = load i32, ptr %15, align 4, !tbaa !36
  %34 = sext i32 %33 to i64
  %35 = add i64 %32, %34
  %36 = getelementptr inbounds nuw float, ptr %31, i64 %35
  %37 = load float, ptr %36, align 4, !tbaa !45
  %38 = load float, ptr %14, align 4, !tbaa !45
  %39 = fsub reassoc nsz arcp contract afn float 1.000000e+00, %38
  %40 = fmul reassoc nsz arcp contract afn float %37, %39
  %41 = load ptr, ptr %7, align 8, !tbaa !11
  %42 = load i64, ptr %12, align 8, !tbaa !43
  %43 = load i32, ptr %15, align 4, !tbaa !36
  %44 = sext i32 %43 to i64
  %45 = add i64 %42, %44
  %46 = getelementptr inbounds nuw float, ptr %41, i64 %45
  %47 = load float, ptr %46, align 4, !tbaa !45
  %48 = load float, ptr %14, align 4, !tbaa !45
  %49 = fmul reassoc nsz arcp contract afn float %47, %48
  %50 = fadd reassoc nsz arcp contract afn float %40, %49
  %51 = load ptr, ptr %8, align 8, !tbaa !11
  %52 = load i64, ptr %12, align 8, !tbaa !43
  %53 = load i32, ptr %15, align 4, !tbaa !36
  %54 = sext i32 %53 to i64
  %55 = add i64 %52, %54
  %56 = getelementptr inbounds nuw float, ptr %51, i64 %55
  store float %50, ptr %56, align 4, !tbaa !45
  br label %57

57:                                               ; preds = %30
  %58 = load i32, ptr %15, align 4, !tbaa !36
  %59 = add nsw i32 %58, 1
  store i32 %59, ptr %15, align 4, !tbaa !36
  br label %26

60:                                               ; preds = %29
  %61 = load float, ptr %14, align 4, !tbaa !45
  %62 = load ptr, ptr %8, align 8, !tbaa !11
  %63 = load i64, ptr %12, align 8, !tbaa !43
  %64 = add i64 %63, 3
  %65 = getelementptr inbounds nuw float, ptr %62, i64 %64
  store float %61, ptr %65, align 4, !tbaa !45
  call void @llvm.lifetime.end.p0(i64 4, ptr %14) #8
  br label %66

66:                                               ; preds = %60
  %67 = load i64, ptr %11, align 8, !tbaa !43
  %68 = add i64 %67, 1
  store i64 %68, ptr %11, align 8, !tbaa !43
  %69 = load i64, ptr %12, align 8, !tbaa !43
  %70 = add i64 %69, 4
  store i64 %70, ptr %12, align 8, !tbaa !43
  br label %16

71:                                               ; preds = %20
  ret void
}